target datalayout = "e-m:e-p270:32:32-p271:32:32-p272:64:64-i64:64-i128:128-f80:128-n8:16:32:64-S128"
target triple = "x86_64-pc-linux-gnu"

%"class.pxrInternal_v0_24__pxrReserved__::GfMatrix4f" = type { %"class.pxrInternal_v0_24__pxrReserved__::GfMatrixData" }
%"class.pxrInternal_v0_24__pxrReserved__::GfMatrixData" = type { [16 x float] }

; Function Attrs: mustprogress nounwind uwtable
define linkonce_odr noundef ptr @_ZN32pxrInternal_v0_24__pxrReserved__12GfMatrixDataIfLi4ELi4EEixEi(ptr noundef nonnull align 4 dereferenceable(64) %0, i32 noundef %1) #2 comdat align 2 {
  %3 = alloca ptr, align 8
  %4 = alloca i32, align 4
  store ptr %0, ptr %3, align 8
  store i32 %1, ptr %4, align 4
  %5 = load ptr, ptr %3, align 8
  %6 = getelementptr inbounds nuw %"class.pxrInternal_v0_24__pxrReserved__::GfMatrixData", ptr %5, i32 0, i32 0
  %7 = getelementptr inbounds [16 x float], ptr %6, i64 0, i64 0
  %8 = load i32, ptr %4, align 4
  %9 = mul nsw i32 %8, 4
  %10 = sext i32 %9 to i64
  %11 = getelementptr inbounds float, ptr %7, i64 %10
  ret ptr %11
}

; Function Attrs: mustprogress uwtable
define linkonce_odr noundef nonnull align 4 dereferenceable(64) ptr @_ZN32pxrInternal_v0_24__pxrReserved__10GfMatrix4f3SetEffffffffffffffff(ptr noundef nonnull align 4 dereferenceable(64) %0, float noundef %1, float noundef %2, float noundef %3, float noundef %4, float noundef %5, float noundef %6, float noundef %7, float noundef %8, float noundef %9, float noundef %10, float noundef %11, float noundef %12, float noundef %13, float noundef %14, float noundef %15, float noundef %16) #0 comdat align 2 {
  %18 = alloca ptr, align 8
  %19 = alloca float, align 4
  %20 = alloca float, align 4
  %21 = alloca float, align 4
  %22 = alloca float, align 4
  %23 = alloca float, align 4
  %24 = alloca float, align 4
  %25 = alloca float, align 4
  %26 = alloca float, align 4
  %27 = alloca float, align 4
  %28 = alloca float, align 4
  %29 = alloca float, align 4
  %30 = alloca float, align 4
  %31 = alloca float, align 4
  %32 = alloca float, align 4
  %33 = alloca float, align 4
  %34 = alloca float, align 4
  store ptr %0, ptr %18, align 8
  store float %1, ptr %19, align 4
  store float %2, ptr %20, align 4
  store float %3, ptr %21, align 4
  store float %4, ptr %22, align 4
  store float %5, ptr %23, align 4
  store float %6, ptr %24, align 4
  store float %7, ptr %25, align 4
  store float %8, ptr %26, align 4
  store float %9, ptr %27, align 4
  store float %10, ptr %28, align 4
  store float %11, ptr %29, align 4
  store float %12, ptr %30, align 4
  store float %13, ptr %31, align 4
  store float %14, ptr %32, align 4
  store float %15, ptr %33, align 4
  store float %16, ptr %34, align 4
  %35 = load ptr, ptr %18, align 8
  %36 = load float, ptr %19, align 4
  %37 = getelementptr inbounds nuw %"class.pxrInternal_v0_24__pxrReserved__::GfMatrix4f", ptr %35, i32 0, i32 0
  %38 = call noundef ptr @_ZN32pxrInternal_v0_24__pxrReserved__12GfMatrixDataIfLi4ELi4EEixEi(ptr noundef nonnull align 4 dereferenceable(64) %37, i32 noundef 0)
  %39 = getelementptr inbounds float, ptr %38, i64 0
  store float %36, ptr %39, align 4
  %40 = load float, ptr %20, align 4
  %41 = getelementptr inbounds nuw %"class.pxrInternal_v0_24__pxrReserved__::GfMatrix4f", ptr %35, i32 0, i32 0
  %42 = call noundef ptr @_ZN32pxrInternal_v0_24__pxrReserved__12GfMatrixDataIfLi4ELi4EEixEi(ptr noundef nonnull align 4 dereferenceable(64) %41, i32 noundef 0)
  %43 = getelementptr inbounds float, ptr %42, i64 1
  store float %40, ptr %43, align 4
  %44 = load float, ptr %21, align 4
  %45 = getelementptr inbounds nuw %"class.pxrInternal_v0_24__pxrReserved__::GfMatrix4f", ptr %35, i32 0, i32 0
  %46 = call noundef ptr @_ZN32pxrInternal_v0_24__pxrReserved__12GfMatrixDataIfLi4ELi4EEixEi(ptr noundef nonnull align 4 dereferenceable(64) %45, i32 noundef 0)
  %47 = getelementptr inbounds float, ptr %46, i64 2
  store float %44, ptr %47, align 4
  %48 = load float, ptr %22, align 4
  %49 = getelementptr inbounds nuw %"class.pxrInternal_v0_24__pxrReserved__::GfMatrix4f", ptr %35, i32 0, i32 0
  %50 = call noundef ptr @_ZN32pxrInternal_v0_24__pxrReserved__12GfMatrixDataIfLi4ELi4EEixEi(ptr noundef nonnull align 4 dereferenceable(64) %49, i32 noundef 0)
  %51 = getelementptr inbounds float, ptr %50, i64 3
  store float %48, ptr %51, align 4
  %52 = load float, ptr %23, align 4
  %53 = getelementptr inbounds nuw %"class.pxrInternal_v0_24__pxrReserved__::GfMatrix4f", ptr %35, i32 0, i32 0
  %54 = call noundef ptr @_ZN32pxrInternal_v0_24__pxrReserved__12GfMatrixDataIfLi4ELi4EEixEi(ptr noundef nonnull align 4 dereferenceable(64) %53, i32 noundef 1)
  %55 = getelementptr inbounds float, ptr %54, i64 0
  store float %52, ptr %55, align 4
  %56 = load float, ptr %24, align 4
  %57 = getelementptr inbounds nuw %"class.pxrInternal_v0_24__pxrReserved__::GfMatrix4f", ptr %35, i32 0, i32 0
  %58 = call noundef ptr @_ZN32pxrInternal_v0_24__pxrReserved__12GfMatrixDataIfLi4ELi4EEixEi(ptr noundef nonnull align 4 dereferenceable(64) %57, i32 noundef 1)
  %59 = getelementptr inbounds float, ptr %58, i64 1
  store float %56, ptr %59, align 4
  %60 = load float, ptr %25, align 4
  %61 = getelementptr inbounds nuw %"class.pxrInternal_v0_24__pxrReserved__::GfMatrix4f", ptr %35, i32 0, i32 0
  %62 = call noundef ptr @_ZN32pxrInternal_v0_24__pxrReserved__12GfMatrixDataIfLi4ELi4EEixEi(ptr noundef nonnull align 4 dereferenceable(64) %61, i32 noundef 1)
  %63 = getelementptr inbounds float, ptr %62, i64 2
  store float %60, ptr %63, align 4
  %64 = load float, ptr %26, align 4
  %65 = getelementptr inbounds nuw %"class.pxrInternal_v0_24__pxrReserved__::GfMatrix4f", ptr %35, i32 0, i32 0
  %66 = call noundef ptr @_ZN32pxrInternal_v0_24__pxrReserved__12GfMatrixDataIfLi4ELi4EEixEi(ptr noundef nonnull align 4 dereferenceable(64) %65, i32 noundef 1)
  %67 = getelementptr inbounds float, ptr %66, i64 3
  store float %64, ptr %67, align 4
  %68 = load float, ptr %27, align 4
  %69 = getelementptr inbounds nuw %"class.pxrInternal_v0_24__pxrReserved__::GfMatrix4f", ptr %35, i32 0, i32 0
  %70 = call noundef ptr @_ZN32pxrInternal_v0_24__pxrReserved__12GfMatrixDataIfLi4ELi4EEixEi(ptr noundef nonnull align 4 dereferenceable(64) %69, i32 noundef 2)
  %71 = getelementptr inbounds float, ptr %70, i64 0
  store float %68, ptr %71, align 4
  %72 = load float, ptr %28, align 4
  %73 = getelementptr inbounds nuw %"class.pxrInternal_v0_24__pxrReserved__::GfMatrix4f", ptr %35, i32 0, i32 0
  %74 = call noundef ptr @_ZN32pxrInternal_v0_24__pxrReserved__12GfMatrixDataIfLi4ELi4EEixEi(ptr noundef nonnull align 4 dereferenceable(64) %73, i32 noundef 2)
  %75 = getelementptr inbounds float, ptr %74, i64 1
  store float %72, ptr %75, align 4
  %76 = load float, ptr %29, align 4
  %77 = getelementptr inbounds nuw %"class.pxrInternal_v0_24__pxrReserved__::GfMatrix4f", ptr %35, i32 0, i32 0
  %78 = call noundef ptr @_ZN32pxrInternal_v0_24__pxrReserved__12GfMatrixDataIfLi4ELi4EEixEi(ptr noundef nonnull align 4 dereferenceable(64) %77, i32 noundef 2)
  %79 = getelementptr inbounds float, ptr %78, i64 2
  store float %76, ptr %79, align 4
  %80 = load float, ptr %30, align 4
  %81 = getelementptr inbounds nuw %"class.pxrInternal_v0_24__pxrReserved__::GfMatrix4f", ptr %35, i32 0, i32 0
  %82 = call noundef ptr @_ZN32pxrInternal_v0_24__pxrReserved__12GfMatrixDataIfLi4ELi4EEixEi(ptr noundef nonnull align 4 dereferenceable(64) %81, i32 noundef 2)
  %83 = getelementptr inbounds float, ptr %82, i64 3
  store float %80, ptr %83, align 4
  %84 = load float, ptr %31, align 4
  %85 = getelementptr inbounds nuw %"class.pxrInternal_v0_24__pxrReserved__::GfMatrix4f", ptr %35, i32 0, i32 0
  %86 = call noundef ptr @_ZN32pxrInternal_v0_24__pxrReserved__12GfMatrixDataIfLi4ELi4EEixEi(ptr noundef nonnull align 4 dereferenceable(64) %85, i32 noundef 3)
  %87 = getelementptr inbounds float, ptr %86, i64 0
  store float %84, ptr %87, align 4
  %88 = load float, ptr %32, align 4
  %89 = getelementptr inbounds nuw %"class.pxrInternal_v0_24__pxrReserved__::GfMatrix4f", ptr %35, i32 0, i32 0
  %90 = call noundef ptr @_ZN32pxrInternal_v0_24__pxrReserved__12GfMatrixDataIfLi4ELi4EEixEi(ptr noundef nonnull align 4 dereferenceable(64) %89, i32 noundef 3)
  %91 = getelementptr inbounds float, ptr %90, i64 1
  store float %88, ptr %91, align 4
  %92 = load float, ptr %33, align 4
  %93 = getelementptr inbounds nuw %"class.pxrInternal_v0_24__pxrReserved__::GfMatrix4f", ptr %35, i32 0, i32 0
  %94 = call noundef ptr @_ZN32pxrInternal_v0_24__pxrReserved__12GfMatrixDataIfLi4ELi4EEixEi(ptr noundef nonnull align 4 dereferenceable(64) %93, i32 noundef 3)
  %95 = getelementptr inbounds float, ptr %94, i64 2
  store float %92, ptr %95, align 4
  %96 = load float, ptr %34, align 4
  %97 = getelementptr inbounds nuw %"class.pxrInternal_v0_24__pxrReserved__::GfMatrix4f", ptr %35, i32 0, i32 0
  %98 = call noundef ptr @_ZN32pxrInternal_v0_24__pxrReserved__12GfMatrixDataIfLi4ELi4EEixEi(ptr noundef nonnull align 4 dereferenceable(64) %97, i32 noundef 3)
  %99 = getelementptr inbounds float, ptr %98, i64 3
  store float %96, ptr %99, align 4
  ret ptr %35
}

; Function Attrs: mustprogress uwtable
define linkonce_odr void @_ZN32pxrInternal_v0_24__pxrReserved__10GfMatrix4fC2Effffffffffffffff(ptr noundef nonnull align 4 dereferenceable(64) %0, float noundef %1, float noundef %2, float noundef %3, float noundef %4, float noundef %5, float noundef %6, float noundef %7, float noundef %8, float noundef %9, float noundef %10, float noundef %11, float noundef %12, float noundef %13, float noundef %14, float noundef %15, float noundef %16) unnamed_addr #0 comdat align 2 {
  %18 = alloca ptr, align 8
  %19 = alloca float, align 4
  %20 = alloca float, align 4
  %21 = alloca float, align 4
  %22 = alloca float, align 4
  %23 = alloca float, align 4
  %24 = alloca float, align 4
  %25 = alloca float, align 4
  %26 = alloca float, align 4
  %27 = alloca float, align 4
  %28 = alloca float, align 4
  %29 = alloca float, align 4
  %30 = alloca float, align 4
  %31 = alloca float, align 4
  %32 = alloca float, align 4
  %33 = alloca float, align 4
  %34 = alloca float, align 4
  store ptr %0, ptr %18, align 8
  store float %1, ptr %19, align 4
  store float %2, ptr %20, align 4
  store float %3, ptr %21, align 4
  store float %4, ptr %22, align 4
  store float %5, ptr %23, align 4
  store float %6, ptr %24, align 4
  store float %7, ptr %25, align 4
  store float %8, ptr %26, align 4
  store float %9, ptr %27, align 4
  store float %10, ptr %28, align 4
  store float %11, ptr %29, align 4
  store float %12, ptr %30, align 4
  store float %13, ptr %31, align 4
  store float %14, ptr %32, align 4
  store float %15, ptr %33, align 4
  store float %16, ptr %34, align 4
  %35 = load ptr, ptr %18, align 8
  %36 = load float, ptr %19, align 4
  %37 = load float, ptr %20, align 4
  %38 = load float, ptr %21, align 4
  %39 = load float, ptr %22, align 4
  %40 = load float, ptr %23, align 4
  %41 = load float, ptr %24, align 4
  %42 = load float, ptr %25, align 4
  %43 = load float, ptr %26, align 4
  %44 = load float, ptr %27, align 4
  %45 = load float, ptr %28, align 4
  %46 = load float, ptr %29, align 4
  %47 = load float, ptr %30, align 4
  %48 = load float, ptr %31, align 4
  %49 = load float, ptr %32, align 4
  %50 = load float, ptr %33, align 4
  %51 = load float, ptr %34, align 4
  %52 = call noundef nonnull align 4 dereferenceable(64) ptr @_ZN32pxrInternal_v0_24__pxrReserved__10GfMatrix4f3SetEffffffffffffffff(ptr noundef nonnull align 4 dereferenceable(64) %35, float noundef %36, float noundef %37, float noundef %38, float noundef %39, float noundef %40, float noundef %41, float noundef %42, float noundef %43, float noundef %44, float noundef %45, float noundef %46, float noundef %47, float noundef %48, float noundef %49, float noundef %50, float noundef %51)
  ret void
}

; Function Attrs: mustprogress nounwind uwtable
define linkonce_odr noundef ptr @_ZNK32pxrInternal_v0_24__pxrReserved__12GfMatrixDataIfLi4ELi4EEixEi(ptr noundef nonnull align 4 dereferenceable(64) %0, i32 noundef %1) #2 comdat align 2 {
  %3 = alloca ptr, align 8
  %4 = alloca i32, align 4
  store ptr %0, ptr %3, align 8
  store i32 %1, ptr %4, align 4
  %5 = load ptr, ptr %3, align 8
  %6 = getelementptr inbounds nuw %"class.pxrInternal_v0_24__pxrReserved__::GfMatrixData", ptr %5, i32 0, i32 0
  %7 = getelementptr inbounds [16 x float], ptr %6, i64 0, i64 0
  %8 = load i32, ptr %4, align 4
  %9 = mul nsw i32 %8, 4
  %10 = sext i32 %9 to i64
  %11 = getelementptr inbounds float, ptr %7, i64 %10
  ret ptr %11
}

; Function Attrs: mustprogress uwtable
define void @_ZN32pxrInternal_v0_24__pxrReserved__ngERKNS_10GfMatrix4fE(ptr dead_on_unwind noalias writable sret(%"class.pxrInternal_v0_24__pxrReserved__::GfMatrix4f") align 4 %0, ptr noundef nonnull align 4 dereferenceable(64) %1) #0 {
  %3 = alloca ptr, align 8
  store ptr %1, ptr %3, align 8
  %4 = load ptr, ptr %3, align 8
  %5 = getelementptr inbounds nuw %"class.pxrInternal_v0_24__pxrReserved__::GfMatrix4f", ptr %4, i32 0, i32 0
  %6 = call noundef ptr @_ZNK32pxrInternal_v0_24__pxrReserved__12GfMatrixDataIfLi4ELi4EEixEi(ptr noundef nonnull align 4 dereferenceable(64) %5, i32 noundef 0)
  %7 = getelementptr inbounds float, ptr %6, i64 0
  %8 = load float, ptr %7, align 4
  %9 = fneg float %8
  %10 = load ptr, ptr %3, align 8
  %11 = getelementptr inbounds nuw %"class.pxrInternal_v0_24__pxrReserved__::GfMatrix4f", ptr %10, i32 0, i32 0
  %12 = call noundef ptr @_ZNK32pxrInternal_v0_24__pxrReserved__12GfMatrixDataIfLi4ELi4EEixEi(ptr noundef nonnull align 4 dereferenceable(64) %11, i32 noundef 0)
  %13 = getelementptr inbounds float, ptr %12, i64 1
  %14 = load float, ptr %13, align 4
  %15 = fneg float %14
  %16 = load ptr, ptr %3, align 8
  %17 = getelementptr inbounds nuw %"class.pxrInternal_v0_24__pxrReserved__::GfMatrix4f", ptr %16, i32 0, i32 0
  %18 = call noundef ptr @_ZNK32pxrInternal_v0_24__pxrReserved__12GfMatrixDataIfLi4ELi4EEixEi(ptr noundef nonnull align 4 dereferenceable(64) %17, i32 noundef 0)
  %19 = getelementptr inbounds float, ptr %18, i64 2
  %20 = load float, ptr %19, align 4
  %21 = fneg float %20
  %22 = load ptr, ptr %3, align 8
  %23 = getelementptr inbounds nuw %"class.pxrInternal_v0_24__pxrReserved__::GfMatrix4f", ptr %22, i32 0, i32 0
  %24 = call noundef ptr @_ZNK32pxrInternal_v0_24__pxrReserved__12GfMatrixDataIfLi4ELi4EEixEi(ptr noundef nonnull align 4 dereferenceable(64) %23, i32 noundef 0)
  %25 = getelementptr inbounds float, ptr %24, i64 3
  %26 = load float, ptr %25, align 4
  %27 = fneg float %26
  %28 = load ptr, ptr %3, align 8
  %29 = getelementptr inbounds nuw %"class.pxrInternal_v0_24__pxrReserved__::GfMatrix4f", ptr %28, i32 0, i32 0
  %30 = call noundef ptr @_ZNK32pxrInternal_v0_24__pxrReserved__12GfMatrixDataIfLi4ELi4EEixEi(ptr noundef nonnull align 4 dereferenceable(64) %29, i32 noundef 1)
  %31 = getelementptr inbounds float, ptr %30, i64 0
  %32 = load float, ptr %31, align 4
  %33 = fneg float %32
  %34 = load ptr, ptr %3, align 8
  %35 = getelementptr inbounds nuw %"class.pxrInternal_v0_24__pxrReserved__::GfMatrix4f", ptr %34, i32 0, i32 0
  %36 = call noundef ptr @_ZNK32pxrInternal_v0_24__pxrReserved__12GfMatrixDataIfLi4ELi4EEixEi(ptr noundef nonnull align 4 dereferenceable(64) %35, i32 noundef 1)
  %37 = getelementptr inbounds float, ptr %36, i64 1
  %38 = load float, ptr %37, align 4
  %39 = fneg float %38
  %40 = load ptr, ptr %3, align 8
  %41 = getelementptr inbounds nuw %"class.pxrInternal_v0_24__pxrReserved__::GfMatrix4f", ptr %40, i32 0, i32 0
  %42 = call noundef ptr @_ZNK32pxrInternal_v0_24__pxrReserved__12GfMatrixDataIfLi4ELi4EEixEi(ptr noundef nonnull align 4 dereferenceable(64) %41, i32 noundef 1)
  %43 = getelementptr inbounds float, ptr %42, i64 2
  %44 = load float, ptr %43, align 4
  %45 = fneg float %44
  %46 = load ptr, ptr %3, align 8
  %47 = getelementptr inbounds nuw %"class.pxrInternal_v0_24__pxrReserved__::GfMatrix4f", ptr %46, i32 0, i32 0
  %48 = call noundef ptr @_ZNK32pxrInternal_v0_24__pxrReserved__12GfMatrixDataIfLi4ELi4EEixEi(ptr noundef nonnull align 4 dereferenceable(64) %47, i32 noundef 1)
  %49 = getelementptr inbounds float, ptr %48, i64 3
  %50 = load float, ptr %49, align 4
  %51 = fneg float %50
  %52 = load ptr, ptr %3, align 8
  %53 = getelementptr inbounds nuw %"class.pxrInternal_v0_24__pxrReserved__::GfMatrix4f", ptr %52, i32 0, i32 0
  %54 = call noundef ptr @_ZNK32pxrInternal_v0_24__pxrReserved__12GfMatrixDataIfLi4ELi4EEixEi(ptr noundef nonnull align 4 dereferenceable(64) %53, i32 noundef 2)
  %55 = getelementptr inbounds float, ptr %54, i64 0
  %56 = load float, ptr %55, align 4
  %57 = fneg float %56
  %58 = load ptr, ptr %3, align 8
  %59 = getelementptr inbounds nuw %"class.pxrInternal_v0_24__pxrReserved__::GfMatrix4f", ptr %58, i32 0, i32 0
  %60 = call noundef ptr @_ZNK32pxrInternal_v0_24__pxrReserved__12GfMatrixDataIfLi4ELi4EEixEi(ptr noundef nonnull align 4 dereferenceable(64) %59, i32 noundef 2)
  %61 = getelementptr inbounds float, ptr %60, i64 1
  %62 = load float, ptr %61, align 4
  %63 = fneg float %62
  %64 = load ptr, ptr %3, align 8
  %65 = getelementptr inbounds nuw %"class.pxrInternal_v0_24__pxrReserved__::GfMatrix4f", ptr %64, i32 0, i32 0
  %66 = call noundef ptr @_ZNK32pxrInternal_v0_24__pxrReserved__12GfMatrixDataIfLi4ELi4EEixEi(ptr noundef nonnull align 4 dereferenceable(64) %65, i32 noundef 2)
  %67 = getelementptr inbounds float, ptr %66, i64 2
  %68 = load float, ptr %67, align 4
  %69 = fneg float %68
  %70 = load ptr, ptr %3, align 8
  %71 = getelementptr inbounds nuw %"class.pxrInternal_v0_24__pxrReserved__::GfMatrix4f", ptr %70, i32 0, i32 0
  %72 = call noundef ptr @_ZNK32pxrInternal_v0_24__pxrReserved__12GfMatrixDataIfLi4ELi4EEixEi(ptr noundef nonnull align 4 dereferenceable(64) %71, i32 noundef 2)
  %73 = getelementptr inbounds float, ptr %72, i64 3
  %74 = load float, ptr %73, align 4
  %75 = fneg float %74
  %76 = load ptr, ptr %3, align 8
  %77 = getelementptr inbounds nuw %"class.pxrInternal_v0_24__pxrReserved__::GfMatrix4f", ptr %76, i32 0, i32 0
  %78 = call noundef ptr @_ZNK32pxrInternal_v0_24__pxrReserved__12GfMatrixDataIfLi4ELi4EEixEi(ptr noundef nonnull align 4 dereferenceable(64) %77, i32 noundef 3)
  %79 = getelementptr inbounds float, ptr %78, i64 0
  %80 = load float, ptr %79, align 4
  %81 = fneg float %80
  %82 = load ptr, ptr %3, align 8
  %83 = getelementptr inbounds nuw %"class.pxrInternal_v0_24__pxrReserved__::GfMatrix4f", ptr %82, i32 0, i32 0
  %84 = call noundef ptr @_ZNK32pxrInternal_v0_24__pxrReserved__12GfMatrixDataIfLi4ELi4EEixEi(ptr noundef nonnull align 4 dereferenceable(64) %83, i32 noundef 3)
  %85 = getelementptr inbounds float, ptr %84, i64 1
  %86 = load float, ptr %85, align 4
  %87 = fneg float %86
  %88 = load ptr, ptr %3, align 8
  %89 = getelementptr inbounds nuw %"class.pxrInternal_v0_24__pxrReserved__::GfMatrix4f", ptr %88, i32 0, i32 0
  %90 = call noundef ptr @_ZNK32pxrInternal_v0_24__pxrReserved__12GfMatrixDataIfLi4ELi4EEixEi(ptr noundef nonnull align 4 dereferenceable(64) %89, i32 noundef 3)
  %91 = getelementptr inbounds float, ptr %90, i64 2
  %92 = load float, ptr %91, align 4
  %93 = fneg float %92
  %94 = load ptr, ptr %3, align 8
  %95 = getelementptr inbounds nuw %"class.pxrInternal_v0_24__pxrReserved__::GfMatrix4f", ptr %94, i32 0, i32 0
  %96 = call noundef ptr @_ZNK32pxrInternal_v0_24__pxrReserved__12GfMatrixDataIfLi4ELi4EEixEi(ptr noundef nonnull align 4 dereferenceable(64) %95, i32 noundef 3)
  %97 = getelementptr inbounds float, ptr %96, i64 3
  %98 = load float, ptr %97, align 4
  %99 = fneg float %98
  call void @_ZN32pxrInternal_v0_24__pxrReserved__10GfMatrix4fC2Effffffffffffffff(ptr noundef nonnull align 4 dereferenceable(64) %0, float noundef %9, float noundef %15, float noundef %21, float noundef %27, float noundef %33, float noundef %39, float noundef %45, float noundef %51, float noundef %57, float noundef %63, float noundef %69, float noundef %75, float noundef %81, float noundef %87, float noundef %93, float noundef %99)
  ret void
}