; Function Attrs: mustprogress nofree norecurse nosync nounwind willreturn memory(argmem: readwrite) uwtable
define void @_ZN32pxrInternal_v0_24__pxrReserved__ngERKNS_10GfMatrix4fE(ptr dead_on_unwind noalias writable writeonly sret(%"class.pxrInternal_v0_24__pxrReserved__::GfMatrix4f") align 4 captures(none) initializes((0, 64)) %0, ptr noundef nonnull readonly align 4 captures(none) dereferenceable(64) %1) local_unnamed_addr #2 {
  %3 = load float, ptr %1, align 4
  %4 = fneg float %3
  %5 = getelementptr inbounds nuw i8, ptr %1, i64 4
  %6 = load float, ptr %5, align 4
  %7 = fneg float %6
  %8 = getelementptr inbounds nuw i8, ptr %1, i64 8
  %9 = load float, ptr %8, align 4
  %10 = fneg float %9
  %11 = getelementptr inbounds nuw i8, ptr %1, i64 12
  %12 = load float, ptr %11, align 4
  %13 = fneg float %12
  %14 = getelementptr inbounds nuw i8, ptr %1, i64 16
  %15 = load float, ptr %14, align 4
  %16 = fneg float %15
  %17 = getelementptr inbounds nuw i8, ptr %1, i64 20
  %18 = load float, ptr %17, align 4
  %19 = fneg float %18
  %20 = getelementptr inbounds nuw i8, ptr %1, i64 24
  %21 = load float, ptr %20, align 4
  %22 = fneg float %21
  %23 = getelementptr inbounds nuw i8, ptr %1, i64 28
  %24 = load float, ptr %23, align 4
  %25 = fneg float %24
  %26 = getelementptr inbounds nuw i8, ptr %1, i64 32
  %27 = load float, ptr %26, align 4
  %28 = fneg float %27
  %29 = getelementptr inbounds nuw i8, ptr %1, i64 36
  %30 = load float, ptr %29, align 4
  %31 = fneg float %30
  %32 = getelementptr inbounds nuw i8, ptr %1, i64 40
  %33 = load float, ptr %32, align 4
  %34 = fneg float %33
  %35 = getelementptr inbounds nuw i8, ptr %1, i64 44
  %36 = load float, ptr %35, align 4
  %37 = fneg float %36
  %38 = getelementptr inbounds nuw i8, ptr %1, i64 48
  %39 = load float, ptr %38, align 4
  %40 = fneg float %39
  %41 = getelementptr inbounds nuw i8, ptr %1, i64 52
  %42 = load float, ptr %41, align 4
  %43 = fneg float %42
  %44 = getelementptr inbounds nuw i8, ptr %1, i64 56
  %45 = load float, ptr %44, align 4
  %46 = fneg float %45
  %47 = getelementptr inbounds nuw i8, ptr %1, i64 60
  %48 = load float, ptr %47, align 4
  %49 = fneg float %48
  store float %4, ptr %0, align 4
  %50 = getelementptr inbounds nuw i8, ptr %0, i64 4
  store float %7, ptr %50, align 4
  %51 = getelementptr inbounds nuw i8, ptr %0, i64 8
  store float %10, ptr %51, align 4
  %52 = getelementptr inbounds nuw i8, ptr %0, i64 12
  store float %13, ptr %52, align 4
  %53 = getelementptr inbounds nuw i8, ptr %0, i64 16
  store float %16, ptr %53, align 4
  %54 = getelementptr inbounds nuw i8, ptr %0, i64 20
  store float %19, ptr %54, align 4
  %55 = getelementptr inbounds nuw i8, ptr %0, i64 24
  store float %22, ptr %55, align 4
  %56 = getelementptr inbounds nuw i8, ptr %0, i64 28
  store float %25, ptr %56, align 4
  %57 = getelementptr inbounds nuw i8, ptr %0, i64 32
  store float %28, ptr %57, align 4
  %58 = getelementptr inbounds nuw i8, ptr %0, i64 36
  store float %31, ptr %58, align 4
  %59 = getelementptr inbounds nuw i8, ptr %0, i64 40
  store float %34, ptr %59, align 4
  %60 = getelementptr inbounds nuw i8, ptr %0, i64 44
  store float %37, ptr %60, align 4
  %61 = getelementptr inbounds nuw i8, ptr %0, i64 48
  store float %40, ptr %61, align 4
  %62 = getelementptr inbounds nuw i8, ptr %0, i64 52
  store float %43, ptr %62, align 4
  %63 = getelementptr inbounds nuw i8, ptr %0, i64 56
  store float %46, ptr %63, align 4
  %64 = getelementptr inbounds nuw i8, ptr %0, i64 60
  store float %49, ptr %64, align 4
  ret void
}